; Function Attrs: mustprogress uwtable
define noundef nonnull align 8 dereferenceable(68) ptr @_ZNK3zmq14session_base_t12get_endpointEv(ptr noundef nonnull readonly align 8 captures(none) dereferenceable(1624) %0) local_unnamed_addr #0 align 2 {
  %2 = getelementptr inbounds nuw i8, ptr %0, i64 1552
  %3 = load ptr, ptr %2, align 8, !tbaa !91
  %4 = load ptr, ptr %3, align 8, !tbaa !54
  %5 = getelementptr inbounds nuw i8, ptr %4, i64 64
  %6 = load ptr, ptr %5, align 8
  %7 = tail call noundef nonnull align 8 dereferenceable(68) ptr %6(ptr noundef nonnull align 8 dereferenceable(8) %3)
  ret ptr %7
}